; Function Attrs: mustprogress nounwind uwtable
define internal fastcc void @"_ZZN9grpc_core22ServerPromiseBasedCall11CommitBatchEPK7grpc_opmRKNS_16PromiseBasedCall10CompletionEEN3$_3D2Ev"(ptr nocapture noundef nonnull align 8 dereferenceable(24) %this) unnamed_addr #7 align 2 {
entry:
  %add.ptr.i.i.i.i.i = getelementptr inbounds i8, ptr %this, i64 16
  %0 = load ptr, ptr %add.ptr.i.i.i.i.i, align 8
  %cmp.not.i = icmp eq ptr %0, null
  br i1 %cmp.not.i, label %_ZNSt10unique_ptrI19grpc_metadata_batchN9grpc_core5Arena13PooledDeleterEED2Ev.exit, label %if.then.i

if.then.i:                                        ; preds = %entry
  %1 = getelementptr inbounds i8, ptr %this, i64 8
  %2 = load i8, ptr %1, align 8
  %3 = and i8 %2, 1
  %tobool.not.i.i = icmp eq i8 %3, 0
  br i1 %tobool.not.i.i, label %_ZNSt10unique_ptrI19grpc_metadata_batchN9grpc_core5Arena13PooledDeleterEED2Ev.exit, label %delete.notnull.i.i

delete.notnull.i.i:                               ; preds = %if.then.i
  tail call void @_ZN9grpc_core11MetadataMapI19grpc_metadata_batchJNS_16HttpPathMetadataENS_21HttpAuthorityMetadataENS_18HttpMethodMetadataENS_18HttpStatusMetadataENS_18HttpSchemeMetadataENS_19ContentTypeMetadataENS_10TeMetadataENS_20GrpcEncodingMetadataENS_27GrpcInternalEncodingRequestENS_26GrpcAcceptEncodingMetadataENS_18GrpcStatusMetadataENS_19GrpcTimeoutMetadataENS_31GrpcPreviousRpcAttemptsMetadataENS_27GrpcRetryPushbackMsMetadataENS_17UserAgentMetadataENS_19GrpcMessageMetadataENS_12HostMetadataENS_30EndpointLoadMetricsBinMetadataENS_26GrpcServerStatsBinMetadataENS_20GrpcTraceBinMetadataENS_19GrpcTagsBinMetadataENS_25GrpcLbClientStatsMetadataENS_17LbCostBinMetadataENS_15LbTokenMetadataENS_18XEnvoyPeerMetadataENS_22GrpcStreamNetworkStateENS_10PeerStringENS_17GrpcStatusContextENS_18GrpcStatusFromWireENS_20GrpcCallWasCancelledENS_12WaitForReadyENS_16GrpcTrailersOnlyENS_10GrpcTarPitENS_20GrpcRegisteredMethodEEED2Ev(ptr noundef nonnull align 8 dereferenceable(568) %0) #28
  tail call void @_ZdlPv(ptr noundef nonnull %0) #31
  br label %_ZNSt10unique_ptrI19grpc_metadata_batchN9grpc_core5Arena13PooledDeleterEED2Ev.exit

_ZNSt10unique_ptrI19grpc_metadata_batchN9grpc_core5Arena13PooledDeleterEED2Ev.exit: ; preds = %entry, %if.then.i, %delete.notnull.i.i
  store ptr null, ptr %add.ptr.i.i.i.i.i, align 8
  ret void
}